Certificate:
    Data:
        Version: 3 (0x2)
        Serial Number: 4 (0x4)
        Signature Algorithm: md5WithRSAEncryption
        Issuer: C=US, ST=California, L=San Diego, O=SDSC, CN=IncaTestCA_ca2
        Validity
            Not Before: Sep  5 15:40:38 2014 GMT
            Not After : Sep  4 15:40:38 2017 GMT
        Subject: C=US, ST=California, O=SDSC, CN=IncaTestClient2
        Subject Public Key Info:
            Public Key Algorithm: rsaEncryption
            RSA Public Key: (512 bit)
                Modulus (512 bit):
                    00:ca:66:d0:a7:10:24:8c:7c:d0:8e:a8:1f:0d:69:
                    fa:ea:4d:73:ad:08:72:29:80:9c:b8:fa:d8:ae:bc:
                    89:3a:82:a1:1d:14:4a:bf:5f:da:a2:ea:ca:e2:6f:
                    bb:c5:ce:05:42:4f:72:27:41:af:c6:3a:e4:72:d9:
                    1e:7b:2e:59:81
                Exponent: 65537 (0x10001)
        X509v3 extensions:
            X509v3 Basic Constraints: 
                CA:FALSE
    Signature Algorithm: md5WithRSAEncryption
        4d:59:e3:96:26:58:b9:64:a3:a2:f1:f8:9b:ee:e1:97:70:29:
        b4:de:f4:8d:a6:26:97:b9:c2:82:1d:11:fa:45:b2:f2:2e:92:
        51:72:1f:b9:e6:77:92:fa:a9:6d:16:b6:10:bd:8e:88:c9:36:
        43:c4:65:4c:b0:f0:cf:0c:45:01
-----BEGIN CERTIFICATE-----
MIIBpzCCAVGgAwIBAgIBBDANBgkqhkiG9w0BAQQFADBeMQswCQYDVQQGEwJVUzET
MBEGA1UECBMKQ2FsaWZvcm5pYTESMBAGA1UEBxMJU2FuIERpZWdvMQ0wCwYDVQQK
EwRTRFNDMRcwFQYDVQQDFA5JbmNhVGVzdENBX2NhMjAeFw0xNDA5MDUxNTQwMzha
Fw0xNzA5MDQxNTQwMzhaMEsxCzAJBgNVBAYTAlVTMRMwEQYDVQQIEwpDYWxpZm9y
bmlhMQ0wCwYDVQQKEwRTRFNDMRgwFgYDVQQDEw9JbmNhVGVzdENsaWVudDIwXDAN
BgkqhkiG9w0BAQEFAANLADBIAkEAymbQpxAkjHzQjqgfDWn66k1zrQhyKYCcuPrY
rryJOoKhHRRKv1/aourK4m+7xc4FQk9yJ0Gvxjrkctkeey5ZgQIDAQABow0wCzAJ
BgNVHRMEAjAAMA0GCSqGSIb3DQEBBAUAA0EATVnjliZYuWSjovH4m+7hl3AptN70
jaYml7nCgh0R+kWy8i6SUXIfueZ3kvqpbRa2EL2OiMk2Q8RlTLDwzwxFAQ==
-----END CERTIFICATE-----
