Certificate:
    Data:
        Version: 3 (0x2)
        Serial Number: 3 (0x3)
        Signature Algorithm: md5WithRSAEncryption
        Issuer: C=US, ST=California, L=San Diego, O=SDSC, CN=IncaTestCA_ca1
        Validity
            Not Before: Sep  5 15:40:38 2014 GMT
            Not After : Sep  4 15:40:38 2017 GMT
        Subject: C=US, ST=California, O=SDSC, CN=IncaTestClient1
        Subject Public Key Info:
            Public Key Algorithm: rsaEncryption
            RSA Public Key: (512 bit)
                Modulus (512 bit):
                    00:af:f6:42:33:21:77:33:43:39:02:a5:7d:8e:72:
                    74:42:a8:7e:60:cb:f5:c0:6a:ab:e3:9f:af:6d:cf:
                    4a:74:2b:e6:e9:7d:ed:3a:51:9a:83:93:81:6e:38:
                    9d:f1:06:d8:13:43:d2:c6:db:d5:e8:4f:a8:c9:c8:
                    b5:36:d8:5a:a3
                Exponent: 65537 (0x10001)
        X509v3 extensions:
            X509v3 Basic Constraints: 
                CA:FALSE
    Signature Algorithm: md5WithRSAEncryption
        83:5e:be:4b:87:5d:ac:8b:48:1c:d3:94:d2:2a:49:0d:dd:f3:
        6b:82:b6:eb:c9:35:7d:90:4f:a1:40:63:f3:3a:07:66:3e:52:
        c9:b1:f2:4a:02:99:e2:1b:e3:6f:f6:56:82:79:76:b8:16:93:
        54:69:d3:2a:19:22:c3:97:40:f5
-----BEGIN CERTIFICATE-----
MIIBpzCCAVGgAwIBAgIBAzANBgkqhkiG9w0BAQQFADBeMQswCQYDVQQGEwJVUzET
MBEGA1UECBMKQ2FsaWZvcm5pYTESMBAGA1UEBxMJU2FuIERpZWdvMQ0wCwYDVQQK
EwRTRFNDMRcwFQYDVQQDFA5JbmNhVGVzdENBX2NhMTAeFw0xNDA5MDUxNTQwMzha
Fw0xNzA5MDQxNTQwMzhaMEsxCzAJBgNVBAYTAlVTMRMwEQYDVQQIEwpDYWxpZm9y
bmlhMQ0wCwYDVQQKEwRTRFNDMRgwFgYDVQQDEw9JbmNhVGVzdENsaWVudDEwXDAN
BgkqhkiG9w0BAQEFAANLADBIAkEAr/ZCMyF3M0M5AqV9jnJ0Qqh+YMv1wGqr45+v
bc9KdCvm6X3tOlGag5OBbjid8QbYE0PSxtvV6E+oyci1NthaowIDAQABow0wCzAJ
BgNVHRMEAjAAMA0GCSqGSIb3DQEBBAUAA0EAg16+S4ddrItIHNOU0ipJDd3za4K2
68k1fZBPoUBj8zoHZj5SybHySgKZ4hvjb/ZWgnl2uBaTVGnTKhkiw5dA9Q==
-----END CERTIFICATE-----
