Certificate:
    Data:
        Version: 3 (0x2)
        Serial Number: 1 (0x1)
        Signature Algorithm: md5WithRSAEncryption
        Issuer: C=US, ST=California, L=San Diego, O=SDSC, CN=IncaTestCA_ca1
        Validity
            Not Before: Sep  5 15:40:38 2014 GMT
            Not After : Sep  4 15:40:38 2017 GMT
        Subject: C=US, ST=California, O=SDSC, CN=localhost
        Subject Public Key Info:
            Public Key Algorithm: rsaEncryption
            RSA Public Key: (512 bit)
                Modulus (512 bit):
                    00:a6:bb:cd:6f:e8:6d:d2:69:1c:aa:a0:17:43:f3:
                    29:8f:77:61:92:00:7d:bd:6f:ee:37:29:fe:da:ca:
                    e7:bf:db:42:fe:cb:cc:8b:c5:68:8f:dd:e5:03:72:
                    93:22:ca:2d:7c:2f:a1:fe:6a:44:af:c6:5a:68:57:
                    93:c6:8c:e8:cd
                Exponent: 65537 (0x10001)
        X509v3 extensions:
            X509v3 Basic Constraints: 
                CA:FALSE
    Signature Algorithm: md5WithRSAEncryption
        a0:2d:c2:51:9f:b1:bd:32:f3:f5:c8:88:66:7b:57:ea:5b:c4:
        2e:20:46:82:48:e8:6e:73:3a:d9:01:50:2d:a7:65:cf:98:c7:
        75:c5:19:7e:d3:f9:3c:83:11:f2:c8:72:ab:9f:0c:e4:59:6e:
        09:f2:20:71:ac:32:89:3c:4a:c5
-----BEGIN CERTIFICATE-----
MIIBoTCCAUugAwIBAgIBATANBgkqhkiG9w0BAQQFADBeMQswCQYDVQQGEwJVUzET
MBEGA1UECBMKQ2FsaWZvcm5pYTESMBAGA1UEBxMJU2FuIERpZWdvMQ0wCwYDVQQK
EwRTRFNDMRcwFQYDVQQDFA5JbmNhVGVzdENBX2NhMTAeFw0xNDA5MDUxNTQwMzha
Fw0xNzA5MDQxNTQwMzhaMEUxCzAJBgNVBAYTAlVTMRMwEQYDVQQIEwpDYWxpZm9y
bmlhMQ0wCwYDVQQKEwRTRFNDMRIwEAYDVQQDEwlsb2NhbGhvc3QwXDANBgkqhkiG
9w0BAQEFAANLADBIAkEAprvNb+ht0mkcqqAXQ/Mpj3dhkgB9vW/uNyn+2srnv9tC
/svMi8Voj93lA3KTIsotfC+h/mpEr8ZaaFeTxozozQIDAQABow0wCzAJBgNVHRME
AjAAMA0GCSqGSIb3DQEBBAUAA0EAoC3CUZ+xvTLz9ciIZntX6lvELiBGgkjobnM6
2QFQLadlz5jHdcUZftP5PIMR8shyq58M5FluCfIgcawyiTxKxQ==
-----END CERTIFICATE-----
