Certificate:
    Data:
        Version: 3 (0x2)
        Serial Number: 2 (0x2)
        Signature Algorithm: md5WithRSAEncryption
        Issuer: C=US, ST=California, L=San Diego, O=SDSC, CN=IncaTestCA_ca2
        Validity
            Not Before: Sep  5 15:40:38 2014 GMT
            Not After : Sep  4 15:40:38 2017 GMT
        Subject: C=US, ST=California, O=SDSC, CN=localhost
        Subject Public Key Info:
            Public Key Algorithm: rsaEncryption
            RSA Public Key: (512 bit)
                Modulus (512 bit):
                    00:c3:00:91:ae:a3:b5:be:cb:e3:65:51:d9:ff:bf:
                    a2:f3:e8:d9:41:97:d7:2e:42:27:51:d7:63:49:93:
                    39:4e:e7:bb:ba:58:17:30:a0:2a:9e:cd:4d:19:48:
                    73:25:3f:a7:b0:4d:09:ea:90:dc:a7:29:48:80:de:
                    5d:5f:da:71:a7
                Exponent: 65537 (0x10001)
        X509v3 extensions:
            X509v3 Basic Constraints: 
                CA:FALSE
    Signature Algorithm: md5WithRSAEncryption
        8e:d3:ea:c2:75:6d:4f:8e:74:1c:c4:3b:5f:57:e7:a1:a2:41:
        8f:1c:41:ad:5e:62:ce:c7:d3:18:72:70:5a:ca:30:84:c8:40:
        43:76:8d:04:39:5f:b6:bc:ff:49:84:26:d9:63:a3:a7:cc:80:
        46:15:c9:f7:57:82:0b:9a:1d:b4
-----BEGIN CERTIFICATE-----
MIIBoTCCAUugAwIBAgIBAjANBgkqhkiG9w0BAQQFADBeMQswCQYDVQQGEwJVUzET
MBEGA1UECBMKQ2FsaWZvcm5pYTESMBAGA1UEBxMJU2FuIERpZWdvMQ0wCwYDVQQK
EwRTRFNDMRcwFQYDVQQDFA5JbmNhVGVzdENBX2NhMjAeFw0xNDA5MDUxNTQwMzha
Fw0xNzA5MDQxNTQwMzhaMEUxCzAJBgNVBAYTAlVTMRMwEQYDVQQIEwpDYWxpZm9y
bmlhMQ0wCwYDVQQKEwRTRFNDMRIwEAYDVQQDEwlsb2NhbGhvc3QwXDANBgkqhkiG
9w0BAQEFAANLADBIAkEAwwCRrqO1vsvjZVHZ/7+i8+jZQZfXLkInUddjSZM5Tue7
ulgXMKAqns1NGUhzJT+nsE0J6pDcpylIgN5dX9pxpwIDAQABow0wCzAJBgNVHRME
AjAAMA0GCSqGSIb3DQEBBAUAA0EAjtPqwnVtT450HMQ7X1fnoaJBjxxBrV5izsfT
GHJwWsowhMhAQ3aNBDlftrz/SYQm2WOjp8yARhXJ91eCC5odtA==
-----END CERTIFICATE-----
